; Function Attrs: mustprogress uwtable
define dso_local void @_ZN10Bookkeeper16stat_expr_depthsEv() local_unnamed_addr #6 align 2 {
  %1 = tail call noundef nonnull align 8 dereferenceable(24) ptr @_Z17get_all_functionsv()
  %2 = getelementptr inbounds nuw i8, ptr %1, i64 8
  %3 = load ptr, ptr %2, align 8, !tbaa !36
  %4 = load ptr, ptr %1, align 8, !tbaa !39
  %.not = icmp eq ptr %3, %4
  br i1 %.not, label %._crit_edge, label %.lr.ph

._crit_edge:                                      ; preds = %15, %0
  ret void

.lr.ph:                                           ; preds = %0, %15
  %5 = phi ptr [ %16, %15 ], [ %4, %0 ]
  %6 = phi ptr [ %17, %15 ], [ %3, %0 ]
  %.06 = phi i64 [ %18, %15 ], [ 0, %0 ]
  %7 = getelementptr inbounds nuw ptr, ptr %5, i64 %.06
  %8 = load ptr, ptr %7, align 8, !tbaa !40
  %9 = getelementptr inbounds nuw i8, ptr %8, i64 267
  %10 = load i8, ptr %9, align 1, !tbaa !41, !range !66, !noundef !67
  %11 = trunc nuw i8 %10 to i1
  br i1 %11, label %15, label %12

12:                                               ; preds = %.lr.ph
  %13 = getelementptr inbounds nuw i8, ptr %8, i64 192
  %14 = load ptr, ptr %13, align 8, !tbaa !68
  tail call void @_ZN10Bookkeeper25stat_expr_depths_for_stmtEPK9Statement(ptr noundef %14)
  %.pre = load ptr, ptr %2, align 8, !tbaa !36
  %.pre7 = load ptr, ptr %1, align 8, !tbaa !39
  br label %15

15:                                               ; preds = %.lr.ph, %12
  %16 = phi ptr [ %5, %.lr.ph ], [ %.pre7, %12 ]
  %17 = phi ptr [ %6, %.lr.ph ], [ %.pre, %12 ]
  %18 = add nuw i64 %.06, 1
  %19 = ptrtoint ptr %17 to i64
  %20 = ptrtoint ptr %16 to i64
  %21 = sub i64 %19, %20
  %22 = ashr exact i64 %21, 3
  %23 = icmp ult i64 %18, %22
  br i1 %23, label %.lr.ph, label %._crit_edge, !llvm.loop !95
}